; Function Attrs: mustprogress uwtable
define void @_ZN10open_spiel11leduc_poker10LeducState8NewRoundEv(ptr nocapture noundef nonnull align 8 dereferenceable(330) %0) local_unnamed_addr #3 align 2 personality ptr @__gxx_personality_v0 {
  %2 = alloca i32, align 4
  %3 = alloca i32, align 4
  %4 = alloca %"class.std::__cxx11::basic_string", align 8
  %5 = alloca i32, align 4
  %6 = getelementptr inbounds nuw i8, ptr %0, i64 72
  %7 = load i32, ptr %6, align 8
  store i32 %7, ptr %2, align 4
  store i32 1, ptr %3, align 4
  %8 = icmp eq i32 %7, 1
  br i1 %8, label %13, label %9

9:                                                ; preds = %1
  store i32 679, ptr %5, align 4
  call void @_ZN10open_spiel8internal11SpielStrCatIJRA142_KcRA2_S2_iS6_RA12_S2_RA8_S2_RA4_S2_RiRA7_S2_SD_EEENSt7__cxx1112basic_stringIcSt11char_traitsIcESaIcEEEDpOT_(ptr dead_on_unwind nonnull writable sret(%"class.std::__cxx11::basic_string") align 8 %4, ptr noundef nonnull align 1 dereferenceable(142) @.str.8, ptr noundef nonnull align 1 dereferenceable(2) @.str.9, ptr noundef nonnull align 4 dereferenceable(4) %5, ptr noundef nonnull align 1 dereferenceable(2) @.str.10, ptr noundef nonnull align 1 dereferenceable(12) @.str.53, ptr noundef nonnull align 1 dereferenceable(8) @.str.54, ptr noundef nonnull align 1 dereferenceable(4) @.str.13, ptr noundef nonnull align 4 dereferenceable(4) %2, ptr noundef nonnull align 1 dereferenceable(7) @.str.55, ptr noundef nonnull align 4 dereferenceable(4) %3)
  invoke void @_ZN10open_spiel15SpielFatalErrorERKNSt7__cxx1112basic_stringIcSt11char_traitsIcESaIcEEE(ptr noundef nonnull align 8 dereferenceable(32) %4) #27
          to label %10 unwind label %11

10:                                               ; preds = %9
  unreachable

11:                                               ; preds = %9
  %12 = landingpad { ptr, i32 }
          cleanup
  call void @_ZNSt7__cxx1112basic_stringIcSt11char_traitsIcESaIcEED1Ev(ptr noundef nonnull align 8 dereferenceable(32) %4) #28
  resume { ptr, i32 } %12

13:                                               ; preds = %1
  store i32 2, ptr %6, align 8
  %14 = getelementptr inbounds nuw i8, ptr %0, i64 68
  store i32 0, ptr %14, align 4
  %15 = getelementptr inbounds nuw i8, ptr %0, i64 64
  store i32 0, ptr %15, align 8
  %16 = getelementptr inbounds nuw i8, ptr %0, i64 60
  store i32 -1, ptr %16, align 4
  ret void
}